target datalayout = "e-m:e-p270:32:32-p271:32:32-p272:64:64-i64:64-i128:128-f80:128-n8:16:32:64-S128"
target triple = "x86_64-pc-linux-gnu"

%struct._zval_struct = type { %union._zend_value, %union.anon, %union.anon.2 }
%union._zend_value = type { i64 }
%union.anon = type { i32 }
%union.anon.2 = type { i32 }
%struct._zend_refcounted_h = type { i32, %union.anon.3 }
%union.anon.3 = type { i32 }
%struct._zend_string = type { %struct._zend_refcounted_h, i64, i64, [1 x i8] }

; Function Attrs: nounwind uwtable
define internal ptr @sxe_property_read(ptr noundef %0, ptr noundef %1, i32 noundef %2, ptr noundef %3, ptr noundef %4) #0 {
  %6 = alloca i32, align 4
  %7 = alloca ptr, align 8
  %8 = alloca ptr, align 8
  %9 = alloca i32, align 4
  %10 = alloca ptr, align 8
  %11 = alloca ptr, align 8
  %12 = alloca %struct._zval_struct, align 8
  %13 = alloca ptr, align 8
  %14 = alloca ptr, align 8
  store ptr %0, ptr %7, align 8
  store ptr %1, ptr %8, align 8
  store i32 %2, ptr %9, align 4
  store ptr %3, ptr %10, align 8
  store ptr %4, ptr %11, align 8
  br label %15

15:                                               ; preds = %5
  store ptr %12, ptr %13, align 8
  %16 = load ptr, ptr %8, align 8
  store ptr %16, ptr %14, align 8
  %17 = load ptr, ptr %14, align 8
  %18 = load ptr, ptr %13, align 8
  %19 = getelementptr inbounds %struct._zval_struct, ptr %18, i32 0, i32 0
  store ptr %17, ptr %19, align 8
  %20 = load ptr, ptr %14, align 8
  %21 = getelementptr inbounds %struct._zend_string, ptr %20, i32 0, i32 0
  %22 = getelementptr inbounds %struct._zend_refcounted_h, ptr %21, i32 0, i32 1
  %23 = load i32, ptr %22, align 4
  store i32 %23, ptr %6, align 4
  %24 = load i32, ptr %6, align 4
  %25 = and i32 %24, 1008
  %26 = and i32 %25, 64
  %27 = icmp ne i32 %26, 0
  %28 = select i1 %27, i32 6, i32 262
  %29 = load ptr, ptr %13, align 8
  %30 = getelementptr inbounds %struct._zval_struct, ptr %29, i32 0, i32 1
  store i32 %28, ptr %30, align 8
  br label %31

31:                                               ; preds = %15
  %32 = load ptr, ptr %7, align 8
  %33 = load i32, ptr %9, align 4
  %34 = load ptr, ptr %11, align 8
  %35 = call ptr @sxe_prop_dim_read(ptr noundef %32, ptr noundef %12, i1 noundef zeroext true, i1 noundef zeroext false, i32 noundef %33, ptr noundef %34)
  ret ptr %35
}