; Function Attrs: nounwind uwtable
define internal noundef ptr @sxe_property_read(ptr noundef %0, ptr noundef %1, i32 noundef %2, ptr nocapture readnone %3, ptr noundef %4) #1 {
  %6 = alloca %struct._zval_struct, align 8
  store ptr %1, ptr %6, align 8
  %7 = getelementptr inbounds i8, ptr %1, i64 4
  %8 = load i32, ptr %7, align 4
  %9 = and i32 %8, 64
  %.not = icmp eq i32 %9, 0
  %10 = select i1 %.not, i32 262, i32 6
  %11 = getelementptr inbounds i8, ptr %6, i64 8
  store i32 %10, ptr %11, align 8
  %12 = call fastcc ptr @sxe_prop_dim_read(ptr noundef %0, ptr noundef nonnull %6, i1 noundef zeroext true, i1 noundef zeroext false, i32 noundef %2, ptr noundef %4)
  ret ptr %12
}